; Function Attrs: mustprogress nofree norecurse nosync nounwind memory(argmem: readwrite) uwtable
define noundef ptr @uprv_decNumberCopySign_77(ptr noundef returned %0, ptr noundef readonly %1, ptr noundef readonly captures(none) %2) local_unnamed_addr #0 {
  %4 = getelementptr inbounds nuw i8, ptr %2, i64 8
  %5 = load i8, ptr %4, align 4, !tbaa !3
  %6 = icmp eq ptr %0, %1
  br i1 %6, label %uprv_decNumberCopy_77.exit, label %7

7:                                                ; preds = %3
  %8 = getelementptr inbounds nuw i8, ptr %1, i64 8
  %9 = load i8, ptr %8, align 4, !tbaa !3
  %10 = getelementptr inbounds nuw i8, ptr %0, i64 8
  store i8 %9, ptr %10, align 4, !tbaa !3
  %11 = getelementptr inbounds nuw i8, ptr %1, i64 4
  %12 = load i32, ptr %11, align 4, !tbaa !8
  %13 = getelementptr inbounds nuw i8, ptr %0, i64 4
  store i32 %12, ptr %13, align 4, !tbaa !8
  %14 = load i32, ptr %1, align 4, !tbaa !9
  store i32 %14, ptr %0, align 4, !tbaa !9
  %.ptr.i = getelementptr inbounds nuw i8, ptr %1, i64 9
  %15 = load i8, ptr %.ptr.i, align 1, !tbaa !10
  %16 = getelementptr inbounds nuw i8, ptr %0, i64 9
  store i8 %15, ptr %16, align 1, !tbaa !10
  %17 = load i32, ptr %1, align 4, !tbaa !9
  %18 = icmp sgt i32 %17, 1
  br i1 %18, label %19, label %uprv_decNumberCopy_77.exit

19:                                               ; preds = %7
  %20 = getelementptr inbounds nuw i8, ptr %0, i64 10
  %21 = icmp samesign ult i32 %17, 50
  br i1 %21, label %22, label %.thread.i

.thread.i:                                        ; preds = %19
  %narrow34.i = add nuw i32 %17, 9
  %.add35.i = zext i32 %narrow34.i to i64
  %.ptr3336.i = getelementptr inbounds nuw i8, ptr %1, i64 %.add35.i
  br label %.lr.ph.preheader.i

22:                                               ; preds = %19
  %23 = zext nneg i32 %17 to i64
  %24 = getelementptr inbounds nuw [50 x i8], ptr @_ZL8d2utable, i64 0, i64 %23
  %25 = load i8, ptr %24, align 1, !tbaa !10
  %26 = zext i8 %25 to i64
  %27 = getelementptr inbounds nuw i8, ptr %1, i64 %26
  %.ptr33.i = getelementptr inbounds nuw i8, ptr %27, i64 9
  br label %.lr.ph.preheader.i

.lr.ph.preheader.i:                               ; preds = %22, %.thread.i
  %.ptr3337.i = phi ptr [ %.ptr3336.i, %.thread.i ], [ %.ptr33.i, %22 ]
  %28 = getelementptr inbounds nuw i8, ptr %1, i64 10
  br label %.lr.ph.i

.lr.ph.i:                                         ; preds = %.lr.ph.i, %.lr.ph.preheader.i
  %.032.i = phi ptr [ %31, %.lr.ph.i ], [ %20, %.lr.ph.preheader.i ]
  %.02631.i = phi ptr [ %30, %.lr.ph.i ], [ %28, %.lr.ph.preheader.i ]
  %29 = load i8, ptr %.02631.i, align 1, !tbaa !10
  store i8 %29, ptr %.032.i, align 1, !tbaa !10
  %30 = getelementptr inbounds nuw i8, ptr %.02631.i, i64 1
  %31 = getelementptr inbounds nuw i8, ptr %.032.i, i64 1
  %32 = icmp ult ptr %30, %.ptr3337.i
  br i1 %32, label %.lr.ph.i, label %uprv_decNumberCopy_77.exit, !llvm.loop !49

uprv_decNumberCopy_77.exit:                       ; preds = %.lr.ph.i, %3, %7
  %33 = and i8 %5, -128
  %34 = getelementptr inbounds nuw i8, ptr %0, i64 8
  %35 = load i8, ptr %34, align 4, !tbaa !3
  %36 = and i8 %35, 127
  %37 = or disjoint i8 %36, %33
  store i8 %37, ptr %34, align 4, !tbaa !3
  ret ptr %0
}